; Function Attrs: nounwind uwtable
define internal void @sapi_cgi_flush(ptr readnone captures(none) %0) #0 {
  %2 = load ptr, ptr @stdout, align 8, !tbaa !95
  %3 = tail call i32 @fflush(ptr noundef %2)
  %4 = icmp eq i32 %3, -1
  br i1 %4, label %5, label %6

5:                                                ; preds = %1
  tail call void @php_handle_aborted_connection() #29
  br label %6

6:                                                ; preds = %5, %1
  ret void
}